; Function Attrs: mustprogress uwtable
define void @_ZN17CaptureFileDialog20addDisplayFilterEditER7QString(ptr noundef nonnull align 8 dereferenceable(572) %0, ptr noundef nonnull align 8 dereferenceable(24) %1) local_unnamed_addr #0 align 2 personality ptr @__gxx_personality_v0 {
  %3 = alloca %class.QString, align 8
  %4 = tail call noundef ptr @_ZNK7QWidget6layoutEv(ptr noundef nonnull align 8 dereferenceable(40) %0)
  %5 = tail call noundef ptr @_ZNK11QMetaObject4castEPK7QObject(ptr noundef nonnull align 8 dereferenceable(56) @_ZN11QGridLayout16staticMetaObjectE, ptr noundef %4)
  %6 = tail call noalias noundef nonnull dereferenceable(40) ptr @_Znwm(i64 noundef 40) #19
  invoke void @_ZNK11QMetaObject2trEPKcS1_i(ptr dead_on_unwind nonnull writable sret(%class.QString) align 8 %3, ptr noundef nonnull align 8 dereferenceable(56) @_ZN17CaptureFileDialog16staticMetaObjectE, ptr noundef nonnull @.str.26, ptr noundef null, i32 noundef -1)
          to label %_ZN17CaptureFileDialog2trEPKcS1_i.exit unwind label %_ZN7QStringD2Ev.exit16.thread

_ZN17CaptureFileDialog2trEPKcS1_i.exit:           ; preds = %2
  invoke void @_ZN6QLabelC1ERK7QStringP7QWidget6QFlagsIN2Qt10WindowTypeEE(ptr noundef nonnull align 8 dereferenceable(40) %6, ptr noundef nonnull align 8 dereferenceable(24) %3, ptr noundef null, i32 0)
          to label %7 unwind label %23

7:                                                ; preds = %_ZN17CaptureFileDialog2trEPKcS1_i.exit
  %8 = getelementptr inbounds i8, ptr %0, i64 120
  %9 = load i32, ptr %8, align 8
  invoke void @_ZN11QGridLayout9addWidgetEP7QWidgetii6QFlagsIN2Qt13AlignmentFlagEE(ptr noundef nonnull align 8 dereferenceable(28) %5, ptr noundef nonnull %6, i32 noundef %9, i32 noundef 0, i32 0)
          to label %10 unwind label %23

10:                                               ; preds = %7
  %11 = load ptr, ptr %3, align 8
  %.not.i.i.i = icmp eq ptr %11, null
  br i1 %.not.i.i.i, label %_ZN7QStringD2Ev.exit, label %_ZN17QArrayDataPointerIDsE5derefEv.exit.i.i

_ZN17QArrayDataPointerIDsE5derefEv.exit.i.i:      ; preds = %10
  %12 = atomicrmw sub ptr %11, i32 1 seq_cst, align 4
  %.not.i.i = icmp eq i32 %12, 1
  br i1 %.not.i.i, label %13, label %_ZN7QStringD2Ev.exit

13:                                               ; preds = %_ZN17QArrayDataPointerIDsE5derefEv.exit.i.i
  %14 = load ptr, ptr %3, align 8
  call void @_ZN10QArrayData10deallocateEPS_xx(ptr noundef %14, i64 noundef 2, i64 noundef 8) #18
  br label %_ZN7QStringD2Ev.exit

_ZN7QStringD2Ev.exit:                             ; preds = %10, %_ZN17QArrayDataPointerIDsE5derefEv.exit.i.i, %13
  %15 = call noalias noundef nonnull dereferenceable(352) ptr @_Znwm(i64 noundef 352) #19
  invoke void @_ZN17DisplayFilterEditC1EP7QWidget21DisplayFilterEditType(ptr noundef nonnull align 8 dereferenceable(352) %15, ptr noundef nonnull %0, i32 noundef 2)
          to label %16 unwind label %29

16:                                               ; preds = %_ZN7QStringD2Ev.exit
  %17 = getelementptr inbounds i8, ptr %0, i64 112
  store ptr %15, ptr %17, align 8
  call void @_ZN9QLineEdit7setTextERK7QString(ptr noundef nonnull align 8 dereferenceable(40) %15, ptr noundef nonnull align 8 dereferenceable(24) %1)
  %18 = load ptr, ptr %17, align 8
  %19 = load i32, ptr %8, align 8
  call void @_ZN11QGridLayout9addWidgetEP7QWidgetii6QFlagsIN2Qt13AlignmentFlagEE(ptr noundef nonnull align 8 dereferenceable(28) %5, ptr noundef %18, i32 noundef %19, i32 noundef 1, i32 0)
  %20 = load i32, ptr %8, align 8
  %21 = add i32 %20, 1
  store i32 %21, ptr %8, align 8
  ret void

_ZN7QStringD2Ev.exit16.thread:                    ; preds = %2
  %22 = landingpad { ptr, i32 }
          cleanup
  br label %.sink.split

23:                                               ; preds = %7, %_ZN17CaptureFileDialog2trEPKcS1_i.exit
  %.0 = phi i1 [ false, %7 ], [ true, %_ZN17CaptureFileDialog2trEPKcS1_i.exit ]
  %24 = landingpad { ptr, i32 }
          cleanup
  %25 = load ptr, ptr %3, align 8
  %.not.i.i.i13 = icmp eq ptr %25, null
  br i1 %.not.i.i.i13, label %_ZN7QStringD2Ev.exit16, label %_ZN17QArrayDataPointerIDsE5derefEv.exit.i.i14

_ZN17QArrayDataPointerIDsE5derefEv.exit.i.i14:    ; preds = %23
  %26 = atomicrmw sub ptr %25, i32 1 seq_cst, align 4
  %.not.i.i15 = icmp eq i32 %26, 1
  br i1 %.not.i.i15, label %27, label %_ZN7QStringD2Ev.exit16

27:                                               ; preds = %_ZN17QArrayDataPointerIDsE5derefEv.exit.i.i14
  %28 = load ptr, ptr %3, align 8
  call void @_ZN10QArrayData10deallocateEPS_xx(ptr noundef %28, i64 noundef 2, i64 noundef 8) #18
  br i1 %.0, label %.sink.split, label %31

_ZN7QStringD2Ev.exit16:                           ; preds = %_ZN17QArrayDataPointerIDsE5derefEv.exit.i.i14, %23
  br i1 %.0, label %.sink.split, label %31

29:                                               ; preds = %_ZN7QStringD2Ev.exit
  %30 = landingpad { ptr, i32 }
          cleanup
  br label %.sink.split

.sink.split:                                      ; preds = %_ZN7QStringD2Ev.exit16, %_ZN7QStringD2Ev.exit16.thread, %27, %29
  %.sink = phi ptr [ %15, %29 ], [ %6, %27 ], [ %6, %_ZN7QStringD2Ev.exit16.thread ], [ %6, %_ZN7QStringD2Ev.exit16 ]
  %.pn11.ph = phi { ptr, i32 } [ %30, %29 ], [ %24, %27 ], [ %22, %_ZN7QStringD2Ev.exit16.thread ], [ %24, %_ZN7QStringD2Ev.exit16 ]
  call void @_ZdlPv(ptr noundef nonnull %.sink) #20
  br label %31

31:                                               ; preds = %.sink.split, %27, %_ZN7QStringD2Ev.exit16
  %.pn11 = phi { ptr, i32 } [ %24, %_ZN7QStringD2Ev.exit16 ], [ %24, %27 ], [ %.pn11.ph, %.sink.split ]
  resume { ptr, i32 } %.pn11
}